; ModuleID = '34/2408.c'
source_filename = "34/2408.c"
target datalayout = "e-m:e-p270:32:32-p271:32:32-p272:64:64-i64:64-f80:128-n8:16:32:64-S128"
target triple = "x86_64-pc-linux-gnu"

@.str = private unnamed_addr constant [3 x i8] c"%d\00", align 1
@.str.1 = private unnamed_addr constant [4 x i8] c"End\00", align 1
@.str.2 = private unnamed_addr constant [9 x i8] c"%d/2=%d\0A\00", align 1
@.str.3 = private unnamed_addr constant [11 x i8] c"%d*3+1=%d\0A\00", align 1

; Function Attrs: noinline nounwind uwtable
define dso_local i32 @main() #0 {
  %1 = alloca i32, align 4
  %2 = alloca i32, align 4
  %3 = alloca i32, align 4
  %4 = alloca i32, align 4
  store i32 0, i32* %1, align 4
  %5 = call i32 (i8*, ...) @__isoc99_scanf(i8* getelementptr inbounds ([3 x i8], [3 x i8]* @.str, i64 0, i64 0), i32* %2)
  %6 = load i32, i32* %2, align 4
  %7 = icmp eq i32 %6, 1
  br i1 %7, label %8, label %10

8:                                                ; preds = %0
  %9 = call i32 (i8*, ...) @printf(i8* getelementptr inbounds ([4 x i8], [4 x i8]* @.str.1, i64 0, i64 0))
  br label %55

10:                                               ; preds = %0
  %11 = load i32, i32* %2, align 4
  %12 = srem i32 %11, 2
  %13 = icmp eq i32 %12, 0
  br i1 %13, label %14, label %21

14:                                               ; preds = %10
  %15 = load i32, i32* %2, align 4
  %16 = sdiv i32 %15, 2
  store i32 %16, i32* %3, align 4
  %17 = load i32, i32* %3, align 4
  store i32 %17, i32* %4, align 4
  %18 = load i32, i32* %2, align 4
  %19 = load i32, i32* %3, align 4
  %20 = call i32 (i8*, ...) @printf(i8* getelementptr inbounds ([9 x i8], [9 x i8]* @.str.2, i64 0, i64 0), i32 %18, i32 %19)
  br label %29

21:                                               ; preds = %10
  %22 = load i32, i32* %2, align 4
  %23 = mul nsw i32 %22, 3
  %24 = add nsw i32 %23, 1
  store i32 %24, i32* %3, align 4
  %25 = load i32, i32* %3, align 4
  store i32 %25, i32* %4, align 4
  %26 = load i32, i32* %2, align 4
  %27 = load i32, i32* %3, align 4
  %28 = call i32 (i8*, ...) @printf(i8* getelementptr inbounds ([11 x i8], [11 x i8]* @.str.3, i64 0, i64 0), i32 %26, i32 %27)
  br label %29

29:                                               ; preds = %21, %14
  br label %30

30:                                               ; preds = %52, %29
  %31 = load i32, i32* %4, align 4
  %32 = icmp ne i32 %31, 1
  br i1 %32, label %33, label %53

33:                                               ; preds = %30
  %34 = load i32, i32* %4, align 4
  %35 = srem i32 %34, 2
  %36 = icmp eq i32 %35, 0
  br i1 %36, label %37, label %44

37:                                               ; preds = %33
  %38 = load i32, i32* %4, align 4
  %39 = sdiv i32 %38, 2
  store i32 %39, i32* %3, align 4
  %40 = load i32, i32* %4, align 4
  %41 = load i32, i32* %3, align 4
  %42 = call i32 (i8*, ...) @printf(i8* getelementptr inbounds ([9 x i8], [9 x i8]* @.str.2, i64 0, i64 0), i32 %40, i32 %41)
  %43 = load i32, i32* %3, align 4
  store i32 %43, i32* %4, align 4
  br label %52

44:                                               ; preds = %33
  %45 = load i32, i32* %4, align 4
  %46 = mul nsw i32 %45, 3
  %47 = add nsw i32 %46, 1
  store i32 %47, i32* %3, align 4
  %48 = load i32, i32* %4, align 4
  %49 = load i32, i32* %3, align 4
  %50 = call i32 (i8*, ...) @printf(i8* getelementptr inbounds ([11 x i8], [11 x i8]* @.str.3, i64 0, i64 0), i32 %48, i32 %49)
  %51 = load i32, i32* %3, align 4
  store i32 %51, i32* %4, align 4
  br label %52

52:                                               ; preds = %44, %37
  br label %30

53:                                               ; preds = %30
  %54 = call i32 (i8*, ...) @printf(i8* getelementptr inbounds ([4 x i8], [4 x i8]* @.str.1, i64 0, i64 0))
  br label %55

55:                                               ; preds = %53, %8
  %56 = call i32 @getchar()
  %57 = call i32 @getchar()
  %58 = load i32, i32* %1, align 4
  ret i32 %58
}

declare dso_local i32 @__isoc99_scanf(i8*, ...) #1

declare dso_local i32 @printf(i8*, ...) #1

declare dso_local i32 @getchar() #1


!llvm.module.flags = !{!0}
!llvm.ident = !{!1}

!0 = !{i32 1, !"wchar_size", i32 4}
!1 = !{!"clang version 10.0.0-4ubuntu1 "}
